target datalayout = "e-m:e-p270:32:32-p271:32:32-p272:64:64-i64:64-i128:128-f80:128-n8:16:32:64-S128"
target triple = "x86_64-pc-linux-gnu"

%struct.AVCodecParameters = type { i32, i32, i32, ptr, i32, ptr, i32, i32, i64, i32, i32, i32, i32, i32, i32, %struct.AVRational, %struct.AVRational, i32, i32, i32, i32, i32, i32, i32, %struct.AVChannelLayout, i32, i32, i32, i32, i32, i32 }
%struct.AVRational = type { i32, i32 }
%struct.AVChannelLayout = type { i32, i32, %union.anon, ptr }
%union.anon = type { i64 }
%struct.VPCC = type { i32, i32, i32, i32, i32 }

; Function Attrs: nounwind uwtable
define i32 @ff_isom_write_vpcc(ptr noundef %0, ptr noundef %1, ptr noundef %2, i32 noundef %3, ptr noundef %4) #0 {
  %6 = alloca i32, align 4
  %7 = alloca ptr, align 8
  %8 = alloca ptr, align 8
  %9 = alloca ptr, align 8
  %10 = alloca i32, align 4
  %11 = alloca ptr, align 8
  %12 = alloca %struct.VPCC, align 4
  %13 = alloca i32, align 4
  %14 = alloca i32, align 4
  store ptr %0, ptr %7, align 8, !tbaa !4
  store ptr %1, ptr %8, align 8, !tbaa !48
  store ptr %2, ptr %9, align 8, !tbaa !11
  store i32 %3, ptr %10, align 4, !tbaa !13
  store ptr %4, ptr %11, align 8, !tbaa !9
  call void @llvm.lifetime.start.p0(i64 20, ptr %12) #5
  call void @llvm.lifetime.start.p0(i64 4, ptr %13) #5
  %15 = load ptr, ptr %7, align 8, !tbaa !4
  %16 = load ptr, ptr %11, align 8, !tbaa !9
  %17 = load ptr, ptr %9, align 8, !tbaa !11
  %18 = load i32, ptr %10, align 4, !tbaa !13
  %19 = call i32 @ff_isom_get_vpcc_features(ptr noundef %15, ptr noundef %16, ptr noundef %17, i32 noundef %18, ptr noundef null, ptr noundef %12)
  store i32 %19, ptr %13, align 4, !tbaa !13
  %20 = load i32, ptr %13, align 4, !tbaa !13
  %21 = icmp slt i32 %20, 0
  br i1 %21, label %22, label %24

22:                                               ; preds = %5
  %23 = load i32, ptr %13, align 4, !tbaa !13
  store i32 %23, ptr %6, align 4
  store i32 1, ptr %14, align 4
  br label %57

24:                                               ; preds = %5
  %25 = load ptr, ptr %8, align 8, !tbaa !48
  call void @avio_w8(ptr noundef %25, i32 noundef 1)
  %26 = load ptr, ptr %8, align 8, !tbaa !48
  call void @avio_wb24(ptr noundef %26, i32 noundef 0)
  %27 = load ptr, ptr %8, align 8, !tbaa !48
  %28 = getelementptr inbounds nuw %struct.VPCC, ptr %12, i32 0, i32 0
  %29 = load i32, ptr %28, align 4, !tbaa !29
  call void @avio_w8(ptr noundef %27, i32 noundef %29)
  %30 = load ptr, ptr %8, align 8, !tbaa !48
  %31 = getelementptr inbounds nuw %struct.VPCC, ptr %12, i32 0, i32 1
  %32 = load i32, ptr %31, align 4, !tbaa !31
  call void @avio_w8(ptr noundef %30, i32 noundef %32)
  %33 = load ptr, ptr %8, align 8, !tbaa !48
  %34 = getelementptr inbounds nuw %struct.VPCC, ptr %12, i32 0, i32 2
  %35 = load i32, ptr %34, align 4, !tbaa !32
  %36 = shl i32 %35, 4
  %37 = getelementptr inbounds nuw %struct.VPCC, ptr %12, i32 0, i32 3
  %38 = load i32, ptr %37, align 4, !tbaa !33
  %39 = shl i32 %38, 1
  %40 = or i32 %36, %39
  %41 = getelementptr inbounds nuw %struct.VPCC, ptr %12, i32 0, i32 4
  %42 = load i32, ptr %41, align 4, !tbaa !34
  %43 = or i32 %40, %42
  call void @avio_w8(ptr noundef %33, i32 noundef %43)
  %44 = load ptr, ptr %8, align 8, !tbaa !48
  %45 = load ptr, ptr %11, align 8, !tbaa !9
  %46 = getelementptr inbounds nuw %struct.AVCodecParameters, ptr %45, i32 0, i32 19
  %47 = load i32, ptr %46, align 8, !tbaa !50
  call void @avio_w8(ptr noundef %44, i32 noundef %47)
  %48 = load ptr, ptr %8, align 8, !tbaa !48
  %49 = load ptr, ptr %11, align 8, !tbaa !9
  %50 = getelementptr inbounds nuw %struct.AVCodecParameters, ptr %49, i32 0, i32 20
  %51 = load i32, ptr %50, align 4, !tbaa !51
  call void @avio_w8(ptr noundef %48, i32 noundef %51)
  %52 = load ptr, ptr %8, align 8, !tbaa !48
  %53 = load ptr, ptr %11, align 8, !tbaa !9
  %54 = getelementptr inbounds nuw %struct.AVCodecParameters, ptr %53, i32 0, i32 21
  %55 = load i32, ptr %54, align 8, !tbaa !52
  call void @avio_w8(ptr noundef %52, i32 noundef %55)
  %56 = load ptr, ptr %8, align 8, !tbaa !48
  call void @avio_wb16(ptr noundef %56, i32 noundef 0)
  store i32 0, ptr %6, align 4
  store i32 1, ptr %14, align 4
  br label %57

57:                                               ; preds = %24, %22
  call void @llvm.lifetime.end.p0(i64 4, ptr %13) #5
  call void @llvm.lifetime.end.p0(i64 20, ptr %12) #5
  %58 = load i32, ptr %6, align 4
  ret i32 %58
}