; Function Attrs: nounwind uwtable
define range(i32 -1094995529, 1) i32 @ff_isom_write_vpcc(ptr noundef %0, ptr noundef %1, ptr noundef readonly captures(address_is_null) %2, i32 noundef %3, ptr noundef readonly captures(none) %4) local_unnamed_addr #0 {
  %6 = alloca %struct.VPCC, align 4
  call void @llvm.lifetime.start.p0(i64 20, ptr nonnull %6) #4
  %7 = call i32 @ff_isom_get_vpcc_features(ptr noundef %0, ptr noundef %4, ptr noundef %2, i32 noundef %3, ptr noundef null, ptr noundef nonnull %6)
  %8 = icmp slt i32 %7, 0
  br i1 %8, label %29, label %9

9:                                                ; preds = %5
  tail call void @avio_w8(ptr noundef %1, i32 noundef 1) #4
  tail call void @avio_wb24(ptr noundef %1, i32 noundef 0) #4
  %10 = load i32, ptr %6, align 4, !tbaa !27
  tail call void @avio_w8(ptr noundef %1, i32 noundef %10) #4
  %11 = getelementptr inbounds nuw i8, ptr %6, i64 4
  %12 = load i32, ptr %11, align 4, !tbaa !29
  tail call void @avio_w8(ptr noundef %1, i32 noundef %12) #4
  %13 = getelementptr inbounds nuw i8, ptr %6, i64 8
  %14 = load i32, ptr %13, align 4, !tbaa !30
  %15 = shl i32 %14, 4
  %16 = getelementptr inbounds nuw i8, ptr %6, i64 12
  %17 = load i32, ptr %16, align 4, !tbaa !31
  %18 = shl i32 %17, 1
  %19 = or i32 %18, %15
  %20 = getelementptr inbounds nuw i8, ptr %6, i64 16
  %21 = load i32, ptr %20, align 4, !tbaa !32
  %22 = or i32 %19, %21
  tail call void @avio_w8(ptr noundef %1, i32 noundef %22) #4
  %23 = getelementptr inbounds nuw i8, ptr %4, i64 104
  %24 = load i32, ptr %23, align 8, !tbaa !33
  tail call void @avio_w8(ptr noundef %1, i32 noundef %24) #4
  %25 = getelementptr inbounds nuw i8, ptr %4, i64 108
  %26 = load i32, ptr %25, align 4, !tbaa !34
  tail call void @avio_w8(ptr noundef %1, i32 noundef %26) #4
  %27 = getelementptr inbounds nuw i8, ptr %4, i64 112
  %28 = load i32, ptr %27, align 8, !tbaa !35
  tail call void @avio_w8(ptr noundef %1, i32 noundef %28) #4
  tail call void @avio_wb16(ptr noundef %1, i32 noundef 0) #4
  br label %29

29:                                               ; preds = %5, %9
  call void @llvm.lifetime.end.p0(i64 20, ptr nonnull %6) #4
  ret i32 %7
}